ARM GAS  C:\Users\STUDENT\AppData\Local\Temp\ccKsTVt9.s 			page 1


   1              		.syntax unified
   2              		.cpu cortex-m0
   3              		.fpu softvfp
   4              		.eabi_attribute 20, 1
   5              		.eabi_attribute 21, 1
   6              		.eabi_attribute 23, 3
   7              		.eabi_attribute 24, 1
   8              		.eabi_attribute 25, 1
   9              		.eabi_attribute 26, 1
  10              		.eabi_attribute 30, 1
  11              		.eabi_attribute 34, 0
  12              		.eabi_attribute 18, 4
  13              		.thumb
  14              		.syntax unified
  15              		.file	"main.c"
  16              		.text
  17              	.Ltext0:
  18              		.cfi_sections	.debug_frame
  19              		.section	.text.initMatrix,"ax",%progbits
  20              		.align	2
  21              		.code	16
  22              		.thumb_func
  23              		.type	initMatrix, %function
  24              	initMatrix:
  25              	.LFB32:
  26              		.file 1 "main.c"
   1:main.c        **** #include "project.h"
   2:main.c        **** /* arrays of pointers */
   3:main.c        **** /* function of drive mode configuration */
   4:main.c        **** static void (*COLUMN_x_SetDriveMode[3])(uint8_t mode) = {
   5:main.c        **** COLUMN_0_SetDriveMode,
   6:main.c        **** COLUMN_1_SetDriveMode,
   7:main.c        **** COLUMN_2_SetDriveMode
   8:main.c        **** };
   9:main.c        **** /* column write function */
  10:main.c        **** static void (*COLUMN_x_Write[3])(uint8_t value) = {
  11:main.c        **** COLUMN_0_Write,
  12:main.c        **** COLUMN_1_Write,
  13:main.c        **** COLUMN_2_Write
  14:main.c        **** };
  15:main.c        **** /* read row function */
  16:main.c        **** static uint8 (*ROW_x_Read[4])() = {
  17:main.c        **** ROW_0_Read,
  18:main.c        **** ROW_1_Read,
  19:main.c        **** ROW_2_Read,
  20:main.c        **** ROW_3_Read
  21:main.c        **** };
  22:main.c        **** /* [ROW][COLUMN] */
  23:main.c        **** static uint8_t keys[4][3] = {
  24:main.c        **** {1, 2, 3},
  25:main.c        **** {4, 5, 6},
  26:main.c        **** {7, 8, 9},
  27:main.c        **** {10, 0, 11},
  28:main.c        **** };
  29:main.c        **** /* matrix initialization function */
  30:main.c        **** static void initMatrix()
  31:main.c        **** {
ARM GAS  C:\Users\STUDENT\AppData\Local\Temp\ccKsTVt9.s 			page 2


  27              		.loc 1 31 0
  28              		.cfi_startproc
  29              		@ args = 0, pretend = 0, frame = 0
  30              		@ frame_needed = 0, uses_anonymous_args = 0
  31 0000 10B5     		push	{r4, lr}
  32              		.cfi_def_cfa_offset 8
  33              		.cfi_offset 4, -8
  34              		.cfi_offset 14, -4
  35              	.LVL0:
  36              	.LBB2:
  32:main.c        **** for(int column_index = 0; column_index < 3; column_index++)
  37              		.loc 1 32 0
  38 0002 0024     		movs	r4, #0
  39 0004 05E0     		b	.L2
  40              	.LVL1:
  41              	.L3:
  33:main.c        **** {
  34:main.c        **** COLUMN_x_SetDriveMode[column_index](COLUMN_0_DM_DIG_HIZ);
  42              		.loc 1 34 0 discriminator 3
  43 0006 A200     		lsls	r2, r4, #2
  44 0008 034B     		ldr	r3, .L4
  45 000a D358     		ldr	r3, [r2, r3]
  46 000c 0120     		movs	r0, #1
  47 000e 9847     		blx	r3
  48              	.LVL2:
  32:main.c        **** for(int column_index = 0; column_index < 3; column_index++)
  49              		.loc 1 32 0 discriminator 3
  50 0010 0134     		adds	r4, r4, #1
  51              	.LVL3:
  52              	.L2:
  32:main.c        **** for(int column_index = 0; column_index < 3; column_index++)
  53              		.loc 1 32 0 is_stmt 0 discriminator 1
  54 0012 022C     		cmp	r4, #2
  55 0014 F7DD     		ble	.L3
  56              	.LBE2:
  35:main.c        **** }
  36:main.c        **** }
  57              		.loc 1 36 0 is_stmt 1
  58              		@ sp needed
  59              	.LVL4:
  60 0016 10BD     		pop	{r4, pc}
  61              	.L5:
  62              		.align	2
  63              	.L4:
  64 0018 00000000 		.word	.LANCHOR0
  65              		.cfi_endproc
  66              	.LFE32:
  67              		.size	initMatrix, .-initMatrix
  68              		.section	.text.readMatrix,"ax",%progbits
  69              		.align	2
  70              		.code	16
  71              		.thumb_func
  72              		.type	readMatrix, %function
  73              	readMatrix:
  74              	.LFB33:
  37:main.c        **** /* keys matrix read function */
  38:main.c        **** static void readMatrix()
ARM GAS  C:\Users\STUDENT\AppData\Local\Temp\ccKsTVt9.s 			page 3


  39:main.c        **** {
  75              		.loc 1 39 0
  76              		.cfi_startproc
  77              		@ args = 0, pretend = 0, frame = 0
  78              		@ frame_needed = 0, uses_anonymous_args = 0
  79 0000 70B5     		push	{r4, r5, r6, lr}
  80              		.cfi_def_cfa_offset 16
  81              		.cfi_offset 4, -16
  82              		.cfi_offset 5, -12
  83              		.cfi_offset 6, -8
  84              		.cfi_offset 14, -4
  85              	.LVL5:
  86              	.LBB3:
  40:main.c        **** /* define the length of a row and column */
  41:main.c        **** uint8_t row_counter = sizeof(ROW_x_Read)/sizeof(ROW_x_Read[0]);
  42:main.c        **** uint8_t column_counter = sizeof(COLUMN_x_Write)/sizeof(COLUMN_x_Write[0]);
  43:main.c        **** /* column: iterate the columns */
  44:main.c        **** for(int column_index = 0; column_index < column_counter; column_index++)
  87              		.loc 1 44 0
  88 0002 0025     		movs	r5, #0
  89 0004 1DE0     		b	.L7
  90              	.LVL6:
  91              	.L10:
  45:main.c        **** {
  46:main.c        **** COLUMN_x_SetDriveMode[column_index](COLUMN_0_DM_STRONG);
  92              		.loc 1 46 0
  93 0006 104E     		ldr	r6, .L11
  94 0008 AC00     		lsls	r4, r5, #2
  95 000a 0620     		movs	r0, #6
  96 000c A359     		ldr	r3, [r4, r6]
  97 000e 9847     		blx	r3
  98              	.LVL7:
  47:main.c        **** COLUMN_x_Write[column_index](0);
  99              		.loc 1 47 0
 100 0010 3419     		adds	r4, r6, r4
 101 0012 E368     		ldr	r3, [r4, #12]
 102 0014 0020     		movs	r0, #0
 103 0016 9847     		blx	r3
 104              	.LVL8:
 105              	.LBB4:
  48:main.c        **** /* row: interate throught the rows */
  49:main.c        **** for(int row_index = 0; row_index < row_counter; row_index++)
 106              		.loc 1 49 0
 107 0018 0024     		movs	r4, #0
 108 001a 0AE0     		b	.L8
 109              	.LVL9:
 110              	.L9:
  50:main.c        **** {
  51:main.c        **** keys[row_index][column_index] = ROW_x_Read[row_index]();
 111              		.loc 1 51 0 discriminator 3
 112 001c A300     		lsls	r3, r4, #2
 113 001e 0A4A     		ldr	r2, .L11
 114 0020 D318     		adds	r3, r2, r3
 115 0022 9B69     		ldr	r3, [r3, #24]
 116 0024 9847     		blx	r3
 117              	.LVL10:
 118 0026 6300     		lsls	r3, r4, #1
ARM GAS  C:\Users\STUDENT\AppData\Local\Temp\ccKsTVt9.s 			page 4


 119 0028 1B19     		adds	r3, r3, r4
 120 002a 084A     		ldr	r2, .L11+4
 121 002c D318     		adds	r3, r2, r3
 122 002e 5855     		strb	r0, [r3, r5]
  49:main.c        **** {
 123              		.loc 1 49 0 discriminator 3
 124 0030 0134     		adds	r4, r4, #1
 125              	.LVL11:
 126              	.L8:
  49:main.c        **** {
 127              		.loc 1 49 0 is_stmt 0 discriminator 1
 128 0032 032C     		cmp	r4, #3
 129 0034 F2DD     		ble	.L9
 130              	.LBE4:
  52:main.c        **** }
  53:main.c        **** /* disable the column */
  54:main.c        **** COLUMN_x_SetDriveMode[column_index](COLUMN_0_DM_DIG_HIZ);
 131              		.loc 1 54 0 is_stmt 1 discriminator 2
 132 0036 AA00     		lsls	r2, r5, #2
 133 0038 034B     		ldr	r3, .L11
 134 003a D358     		ldr	r3, [r2, r3]
 135 003c 0120     		movs	r0, #1
 136 003e 9847     		blx	r3
 137              	.LVL12:
  44:main.c        **** {
 138              		.loc 1 44 0 discriminator 2
 139 0040 0135     		adds	r5, r5, #1
 140              	.LVL13:
 141              	.L7:
  44:main.c        **** {
 142              		.loc 1 44 0 is_stmt 0 discriminator 1
 143 0042 022D     		cmp	r5, #2
 144 0044 DFDD     		ble	.L10
 145              	.LBE3:
  55:main.c        **** }
  56:main.c        **** }
 146              		.loc 1 56 0 is_stmt 1
 147              		@ sp needed
 148              	.LVL14:
 149 0046 70BD     		pop	{r4, r5, r6, pc}
 150              	.L12:
 151              		.align	2
 152              	.L11:
 153 0048 00000000 		.word	.LANCHOR0
 154 004c 00000000 		.word	.LANCHOR1
 155              		.cfi_endproc
 156              	.LFE33:
 157              		.size	readMatrix, .-readMatrix
 158              		.section	.text.printMatrix,"ax",%progbits
 159              		.align	2
 160              		.global	printMatrix
 161              		.code	16
 162              		.thumb_func
 163              		.type	printMatrix, %function
 164              	printMatrix:
 165              	.LFB34:
  57:main.c        **** 
ARM GAS  C:\Users\STUDENT\AppData\Local\Temp\ccKsTVt9.s 			page 5


  58:main.c        **** /* matrix print function */
  59:main.c        **** void printMatrix()
  60:main.c        **** {
 166              		.loc 1 60 0
 167              		.cfi_startproc
 168              		@ args = 0, pretend = 0, frame = 0
 169              		@ frame_needed = 0, uses_anonymous_args = 0
 170 0000 70B5     		push	{r4, r5, r6, lr}
 171              		.cfi_def_cfa_offset 16
 172              		.cfi_offset 4, -16
 173              		.cfi_offset 5, -12
 174              		.cfi_offset 6, -8
 175              		.cfi_offset 14, -4
  61:main.c        **** SW_Tx_UART_PutCRLF();
 176              		.loc 1 61 0
 177 0002 FFF7FEFF 		bl	SW_Tx_UART_PutCRLF
 178              	.LVL15:
 179              	.LBB5:
  62:main.c        **** for (int row_index = 0; row_index < 4; row_index++)
 180              		.loc 1 62 0
 181 0006 0025     		movs	r5, #0
 182 0008 11E0     		b	.L14
 183              	.LVL16:
 184              	.L15:
 185              	.LBB6:
  63:main.c        **** {
  64:main.c        **** for(int column_index = 0; column_index < 3; column_index++)
  65:main.c        **** {
  66:main.c        **** SW_Tx_UART_PutHexInt(keys[row_index][column_index]);
 186              		.loc 1 66 0 discriminator 3
 187 000a 6B00     		lsls	r3, r5, #1
 188 000c 5B19     		adds	r3, r3, r5
 189 000e 0A4A     		ldr	r2, .L18
 190 0010 D318     		adds	r3, r2, r3
 191 0012 185D     		ldrb	r0, [r3, r4]
 192 0014 FFF7FEFF 		bl	SW_Tx_UART_PutHexInt
 193              	.LVL17:
  67:main.c        **** SW_Tx_UART_PutString(" ");
 194              		.loc 1 67 0 discriminator 3
 195 0018 0848     		ldr	r0, .L18+4
 196 001a FFF7FEFF 		bl	SW_Tx_UART_PutString
 197              	.LVL18:
  64:main.c        **** {
 198              		.loc 1 64 0 discriminator 3
 199 001e 0134     		adds	r4, r4, #1
 200              	.LVL19:
 201 0020 00E0     		b	.L16
 202              	.LVL20:
 203              	.L17:
 204              	.LBE6:
 205 0022 0024     		movs	r4, #0
 206              	.L16:
 207              	.LVL21:
 208              	.LBB7:
  64:main.c        **** {
 209              		.loc 1 64 0 is_stmt 0 discriminator 1
 210 0024 022C     		cmp	r4, #2
ARM GAS  C:\Users\STUDENT\AppData\Local\Temp\ccKsTVt9.s 			page 6


 211 0026 F0DD     		ble	.L15
 212              	.LBE7:
  68:main.c        **** }
  69:main.c        **** SW_Tx_UART_PutCRLF();
 213              		.loc 1 69 0 is_stmt 1 discriminator 2
 214 0028 FFF7FEFF 		bl	SW_Tx_UART_PutCRLF
 215              	.LVL22:
  62:main.c        **** {
 216              		.loc 1 62 0 discriminator 2
 217 002c 0135     		adds	r5, r5, #1
 218              	.LVL23:
 219              	.L14:
  62:main.c        **** {
 220              		.loc 1 62 0 is_stmt 0 discriminator 1
 221 002e 032D     		cmp	r5, #3
 222 0030 F7DD     		ble	.L17
 223              	.LBE5:
  70:main.c        **** }
  71:main.c        **** SW_Tx_UART_PutCRLF();
 224              		.loc 1 71 0 is_stmt 1
 225 0032 FFF7FEFF 		bl	SW_Tx_UART_PutCRLF
 226              	.LVL24:
  72:main.c        **** }
 227              		.loc 1 72 0
 228              		@ sp needed
 229              	.LVL25:
 230 0036 70BD     		pop	{r4, r5, r6, pc}
 231              	.L19:
 232              		.align	2
 233              	.L18:
 234 0038 00000000 		.word	.LANCHOR1
 235 003c 00000000 		.word	.LC4
 236              		.cfi_endproc
 237              	.LFE34:
 238              		.size	printMatrix, .-printMatrix
 239              		.section	.text.main,"ax",%progbits
 240              		.align	2
 241              		.global	main
 242              		.code	16
 243              		.thumb_func
 244              		.type	main, %function
 245              	main:
 246              	.LFB35:
  73:main.c        **** int main(void)
  74:main.c        **** {
 247              		.loc 1 74 0
 248              		.cfi_startproc
 249              		@ args = 0, pretend = 0, frame = 0
 250              		@ frame_needed = 0, uses_anonymous_args = 0
 251 0000 10B5     		push	{r4, lr}
 252              		.cfi_def_cfa_offset 8
 253              		.cfi_offset 4, -8
 254              		.cfi_offset 14, -4
  75:main.c        **** CyGlobalIntEnable; /* Enable global interrupts. */
 255              		.loc 1 75 0
 256              		.syntax divided
 257              	@ 75 "main.c" 1
ARM GAS  C:\Users\STUDENT\AppData\Local\Temp\ccKsTVt9.s 			page 7


 258 0002 62B6     		CPSIE   i
 259              	@ 0 "" 2
  76:main.c        **** SW_Tx_UART_Start();
 260              		.loc 1 76 0
 261              		.thumb
 262              		.syntax unified
 263 0004 FFF7FEFF 		bl	SW_Tx_UART_Start
 264              	.LVL26:
  77:main.c        **** SW_Tx_UART_PutCRLF();
 265              		.loc 1 77 0
 266 0008 FFF7FEFF 		bl	SW_Tx_UART_PutCRLF
 267              	.LVL27:
  78:main.c        **** SW_Tx_UART_PutString("Software Transmit UART");
 268              		.loc 1 78 0
 269 000c 8448     		ldr	r0, .L34
 270 000e FFF7FEFF 		bl	SW_Tx_UART_PutString
 271              	.LVL28:
  79:main.c        **** SW_Tx_UART_PutCRLF();
 272              		.loc 1 79 0
 273 0012 FFF7FEFF 		bl	SW_Tx_UART_PutCRLF
 274              	.LVL29:
  80:main.c        **** initMatrix();
 275              		.loc 1 80 0
 276 0016 FFF7FEFF 		bl	initMatrix
 277              	.LVL30:
  81:main.c        **** uint8_t last_state = 0;
 278              		.loc 1 81 0
 279 001a 0024     		movs	r4, #0
 280              	.LVL31:
 281              	.L21:
  82:main.c        **** for(;;)
  83:main.c        **** {
  84:main.c        **** /* Button == 0 -> Button pressed
  85:main.c        **** Button == 1 -> Button released
  86:main.c        **** LED_x_Write(0); -> Turn ON
  87:main.c        **** LED_x_Write(1); -> Turn OFF */
  88:main.c        **** readMatrix();
 282              		.loc 1 88 0
 283 001c FFF7FEFF 		bl	readMatrix
 284              	.LVL32:
  89:main.c        **** if(keys[0][0] == 0 && last_state != 1) //is button pressed
 285              		.loc 1 89 0
 286 0020 804B     		ldr	r3, .L34+4
 287 0022 1B78     		ldrb	r3, [r3]
 288 0024 002B     		cmp	r3, #0
 289 0026 10D1     		bne	.L22
 290              		.loc 1 89 0 is_stmt 0 discriminator 1
 291 0028 012C     		cmp	r4, #1
 292 002a 0ED0     		beq	.L22
 293              	.LVL33:
  90:main.c        **** {
  91:main.c        **** last_state = 1;
  92:main.c        **** SW_Tx_UART_PutString("Button 1 pressed");
 294              		.loc 1 92 0 is_stmt 1
 295 002c 7E48     		ldr	r0, .L34+8
 296 002e FFF7FEFF 		bl	SW_Tx_UART_PutString
 297              	.LVL34:
ARM GAS  C:\Users\STUDENT\AppData\Local\Temp\ccKsTVt9.s 			page 8


  93:main.c        **** SW_Tx_UART_PutCRLF();
 298              		.loc 1 93 0
 299 0032 FFF7FEFF 		bl	SW_Tx_UART_PutCRLF
 300              	.LVL35:
  94:main.c        **** LED_R_Write(0); // Turn ON
 301              		.loc 1 94 0
 302 0036 0020     		movs	r0, #0
 303 0038 FFF7FEFF 		bl	LED_R_Write
 304              	.LVL36:
  95:main.c        **** LED_G_Write(0);
 305              		.loc 1 95 0
 306 003c 0020     		movs	r0, #0
 307 003e FFF7FEFF 		bl	LED_G_Write
 308              	.LVL37:
  96:main.c        **** LED_B_Write(0);
 309              		.loc 1 96 0
 310 0042 0020     		movs	r0, #0
 311 0044 FFF7FEFF 		bl	LED_B_Write
 312              	.LVL38:
  91:main.c        **** SW_Tx_UART_PutString("Button 1 pressed");
 313              		.loc 1 91 0
 314 0048 0124     		movs	r4, #1
 315              	.LVL39:
 316              	.L22:
  97:main.c        **** }
  98:main.c        **** if(keys[0][1] == 0 && last_state != 2) //is button pressed
 317              		.loc 1 98 0
 318 004a 764B     		ldr	r3, .L34+4
 319 004c 5B78     		ldrb	r3, [r3, #1]
 320 004e 002B     		cmp	r3, #0
 321 0050 10D1     		bne	.L23
 322              		.loc 1 98 0 is_stmt 0 discriminator 1
 323 0052 022C     		cmp	r4, #2
 324 0054 0ED0     		beq	.L23
 325              	.LVL40:
  99:main.c        **** {
 100:main.c        **** last_state = 2;
 101:main.c        **** SW_Tx_UART_PutString("Button 2 pressed");
 326              		.loc 1 101 0 is_stmt 1
 327 0056 7548     		ldr	r0, .L34+12
 328 0058 FFF7FEFF 		bl	SW_Tx_UART_PutString
 329              	.LVL41:
 102:main.c        **** SW_Tx_UART_PutCRLF();
 330              		.loc 1 102 0
 331 005c FFF7FEFF 		bl	SW_Tx_UART_PutCRLF
 332              	.LVL42:
 103:main.c        **** LED_R_Write(0); // Turn ON
 333              		.loc 1 103 0
 334 0060 0020     		movs	r0, #0
 335 0062 FFF7FEFF 		bl	LED_R_Write
 336              	.LVL43:
 104:main.c        **** LED_G_Write(0);
 337              		.loc 1 104 0
 338 0066 0020     		movs	r0, #0
 339 0068 FFF7FEFF 		bl	LED_G_Write
 340              	.LVL44:
 105:main.c        **** LED_B_Write(0);
ARM GAS  C:\Users\STUDENT\AppData\Local\Temp\ccKsTVt9.s 			page 9


 341              		.loc 1 105 0
 342 006c 0020     		movs	r0, #0
 343 006e FFF7FEFF 		bl	LED_B_Write
 344              	.LVL45:
 100:main.c        **** SW_Tx_UART_PutString("Button 2 pressed");
 345              		.loc 1 100 0
 346 0072 0224     		movs	r4, #2
 347              	.LVL46:
 348              	.L23:
 106:main.c        **** }
 107:main.c        **** if(keys[0][2] == 0 && last_state != 3) //is button pressed
 349              		.loc 1 107 0
 350 0074 6B4B     		ldr	r3, .L34+4
 351 0076 9B78     		ldrb	r3, [r3, #2]
 352 0078 002B     		cmp	r3, #0
 353 007a 10D1     		bne	.L24
 354              		.loc 1 107 0 is_stmt 0 discriminator 1
 355 007c 032C     		cmp	r4, #3
 356 007e 0ED0     		beq	.L24
 357              	.LVL47:
 108:main.c        **** {
 109:main.c        **** last_state = 3;
 110:main.c        **** SW_Tx_UART_PutString("Button 3 pressed");
 358              		.loc 1 110 0 is_stmt 1
 359 0080 6B48     		ldr	r0, .L34+16
 360 0082 FFF7FEFF 		bl	SW_Tx_UART_PutString
 361              	.LVL48:
 111:main.c        **** SW_Tx_UART_PutCRLF();
 362              		.loc 1 111 0
 363 0086 FFF7FEFF 		bl	SW_Tx_UART_PutCRLF
 364              	.LVL49:
 112:main.c        **** LED_R_Write(0); // Turn ON
 365              		.loc 1 112 0
 366 008a 0020     		movs	r0, #0
 367 008c FFF7FEFF 		bl	LED_R_Write
 368              	.LVL50:
 113:main.c        **** LED_G_Write(0);
 369              		.loc 1 113 0
 370 0090 0020     		movs	r0, #0
 371 0092 FFF7FEFF 		bl	LED_G_Write
 372              	.LVL51:
 114:main.c        **** LED_B_Write(0);
 373              		.loc 1 114 0
 374 0096 0020     		movs	r0, #0
 375 0098 FFF7FEFF 		bl	LED_B_Write
 376              	.LVL52:
 109:main.c        **** SW_Tx_UART_PutString("Button 3 pressed");
 377              		.loc 1 109 0
 378 009c 0324     		movs	r4, #3
 379              	.LVL53:
 380              	.L24:
 115:main.c        **** }
 116:main.c        **** 
 117:main.c        **** if(keys[1][0] == 0 && last_state != 4) //is button pressed
 381              		.loc 1 117 0
 382 009e 614B     		ldr	r3, .L34+4
 383 00a0 DB78     		ldrb	r3, [r3, #3]
ARM GAS  C:\Users\STUDENT\AppData\Local\Temp\ccKsTVt9.s 			page 10


 384 00a2 002B     		cmp	r3, #0
 385 00a4 10D1     		bne	.L25
 386              		.loc 1 117 0 is_stmt 0 discriminator 1
 387 00a6 042C     		cmp	r4, #4
 388 00a8 0ED0     		beq	.L25
 389              	.LVL54:
 118:main.c        **** {
 119:main.c        **** last_state = 4;
 120:main.c        **** SW_Tx_UART_PutString("Button 4 pressed");
 390              		.loc 1 120 0 is_stmt 1
 391 00aa 6248     		ldr	r0, .L34+20
 392 00ac FFF7FEFF 		bl	SW_Tx_UART_PutString
 393              	.LVL55:
 121:main.c        **** SW_Tx_UART_PutCRLF();
 394              		.loc 1 121 0
 395 00b0 FFF7FEFF 		bl	SW_Tx_UART_PutCRLF
 396              	.LVL56:
 122:main.c        **** LED_R_Write(0); // Turn ON
 397              		.loc 1 122 0
 398 00b4 0020     		movs	r0, #0
 399 00b6 FFF7FEFF 		bl	LED_R_Write
 400              	.LVL57:
 123:main.c        **** LED_G_Write(0);
 401              		.loc 1 123 0
 402 00ba 0020     		movs	r0, #0
 403 00bc FFF7FEFF 		bl	LED_G_Write
 404              	.LVL58:
 124:main.c        **** LED_B_Write(0);
 405              		.loc 1 124 0
 406 00c0 0020     		movs	r0, #0
 407 00c2 FFF7FEFF 		bl	LED_B_Write
 408              	.LVL59:
 119:main.c        **** SW_Tx_UART_PutString("Button 4 pressed");
 409              		.loc 1 119 0
 410 00c6 0424     		movs	r4, #4
 411              	.LVL60:
 412              	.L25:
 125:main.c        **** }
 126:main.c        **** if(keys[1][1] == 0 && last_state != 5) //is button pressed
 413              		.loc 1 126 0
 414 00c8 564B     		ldr	r3, .L34+4
 415 00ca 1B79     		ldrb	r3, [r3, #4]
 416 00cc 002B     		cmp	r3, #0
 417 00ce 10D1     		bne	.L26
 418              		.loc 1 126 0 is_stmt 0 discriminator 1
 419 00d0 052C     		cmp	r4, #5
 420 00d2 0ED0     		beq	.L26
 421              	.LVL61:
 127:main.c        **** {
 128:main.c        **** last_state = 5;
 129:main.c        **** SW_Tx_UART_PutString("Button 5 pressed");
 422              		.loc 1 129 0 is_stmt 1
 423 00d4 5848     		ldr	r0, .L34+24
 424 00d6 FFF7FEFF 		bl	SW_Tx_UART_PutString
 425              	.LVL62:
 130:main.c        **** SW_Tx_UART_PutCRLF();
 426              		.loc 1 130 0
ARM GAS  C:\Users\STUDENT\AppData\Local\Temp\ccKsTVt9.s 			page 11


 427 00da FFF7FEFF 		bl	SW_Tx_UART_PutCRLF
 428              	.LVL63:
 131:main.c        **** LED_R_Write(0); // Turn ON
 429              		.loc 1 131 0
 430 00de 0020     		movs	r0, #0
 431 00e0 FFF7FEFF 		bl	LED_R_Write
 432              	.LVL64:
 132:main.c        **** LED_G_Write(0);
 433              		.loc 1 132 0
 434 00e4 0020     		movs	r0, #0
 435 00e6 FFF7FEFF 		bl	LED_G_Write
 436              	.LVL65:
 133:main.c        **** LED_B_Write(0);
 437              		.loc 1 133 0
 438 00ea 0020     		movs	r0, #0
 439 00ec FFF7FEFF 		bl	LED_B_Write
 440              	.LVL66:
 128:main.c        **** SW_Tx_UART_PutString("Button 5 pressed");
 441              		.loc 1 128 0
 442 00f0 0524     		movs	r4, #5
 443              	.LVL67:
 444              	.L26:
 134:main.c        **** }
 135:main.c        **** if(keys[1][2] == 0 && last_state != 6) //is button pressed
 445              		.loc 1 135 0
 446 00f2 4C4B     		ldr	r3, .L34+4
 447 00f4 5B79     		ldrb	r3, [r3, #5]
 448 00f6 002B     		cmp	r3, #0
 449 00f8 10D1     		bne	.L27
 450              		.loc 1 135 0 is_stmt 0 discriminator 1
 451 00fa 062C     		cmp	r4, #6
 452 00fc 0ED0     		beq	.L27
 453              	.LVL68:
 136:main.c        **** {
 137:main.c        **** last_state = 6;
 138:main.c        **** SW_Tx_UART_PutString("Button 6 pressed");
 454              		.loc 1 138 0 is_stmt 1
 455 00fe 4F48     		ldr	r0, .L34+28
 456 0100 FFF7FEFF 		bl	SW_Tx_UART_PutString
 457              	.LVL69:
 139:main.c        **** SW_Tx_UART_PutCRLF();
 458              		.loc 1 139 0
 459 0104 FFF7FEFF 		bl	SW_Tx_UART_PutCRLF
 460              	.LVL70:
 140:main.c        **** LED_R_Write(0); // Turn ON
 461              		.loc 1 140 0
 462 0108 0020     		movs	r0, #0
 463 010a FFF7FEFF 		bl	LED_R_Write
 464              	.LVL71:
 141:main.c        **** LED_G_Write(0);
 465              		.loc 1 141 0
 466 010e 0020     		movs	r0, #0
 467 0110 FFF7FEFF 		bl	LED_G_Write
 468              	.LVL72:
 142:main.c        **** LED_B_Write(0);
 469              		.loc 1 142 0
 470 0114 0020     		movs	r0, #0
ARM GAS  C:\Users\STUDENT\AppData\Local\Temp\ccKsTVt9.s 			page 12


 471 0116 FFF7FEFF 		bl	LED_B_Write
 472              	.LVL73:
 137:main.c        **** SW_Tx_UART_PutString("Button 6 pressed");
 473              		.loc 1 137 0
 474 011a 0624     		movs	r4, #6
 475              	.LVL74:
 476              	.L27:
 143:main.c        **** }
 144:main.c        **** if(keys[2][0] == 0 && last_state != 7) //is button pressed
 477              		.loc 1 144 0
 478 011c 414B     		ldr	r3, .L34+4
 479 011e 9B79     		ldrb	r3, [r3, #6]
 480 0120 002B     		cmp	r3, #0
 481 0122 10D1     		bne	.L28
 482              		.loc 1 144 0 is_stmt 0 discriminator 1
 483 0124 072C     		cmp	r4, #7
 484 0126 0ED0     		beq	.L28
 485              	.LVL75:
 145:main.c        **** {
 146:main.c        **** last_state = 7;
 147:main.c        **** SW_Tx_UART_PutString("Button 7 pressed");
 486              		.loc 1 147 0 is_stmt 1
 487 0128 4548     		ldr	r0, .L34+32
 488 012a FFF7FEFF 		bl	SW_Tx_UART_PutString
 489              	.LVL76:
 148:main.c        **** SW_Tx_UART_PutCRLF();
 490              		.loc 1 148 0
 491 012e FFF7FEFF 		bl	SW_Tx_UART_PutCRLF
 492              	.LVL77:
 149:main.c        **** LED_R_Write(0); // Turn ON
 493              		.loc 1 149 0
 494 0132 0020     		movs	r0, #0
 495 0134 FFF7FEFF 		bl	LED_R_Write
 496              	.LVL78:
 150:main.c        **** LED_G_Write(0);
 497              		.loc 1 150 0
 498 0138 0020     		movs	r0, #0
 499 013a FFF7FEFF 		bl	LED_G_Write
 500              	.LVL79:
 151:main.c        **** LED_B_Write(0);
 501              		.loc 1 151 0
 502 013e 0020     		movs	r0, #0
 503 0140 FFF7FEFF 		bl	LED_B_Write
 504              	.LVL80:
 146:main.c        **** SW_Tx_UART_PutString("Button 7 pressed");
 505              		.loc 1 146 0
 506 0144 0724     		movs	r4, #7
 507              	.LVL81:
 508              	.L28:
 152:main.c        **** }
 153:main.c        **** if(keys[2][1] == 0 && last_state != 8) //is button pressed
 509              		.loc 1 153 0
 510 0146 374B     		ldr	r3, .L34+4
 511 0148 DB79     		ldrb	r3, [r3, #7]
 512 014a 002B     		cmp	r3, #0
 513 014c 10D1     		bne	.L29
 514              		.loc 1 153 0 is_stmt 0 discriminator 1
ARM GAS  C:\Users\STUDENT\AppData\Local\Temp\ccKsTVt9.s 			page 13


 515 014e 082C     		cmp	r4, #8
 516 0150 0ED0     		beq	.L29
 517              	.LVL82:
 154:main.c        **** {
 155:main.c        **** last_state = 8;
 156:main.c        **** SW_Tx_UART_PutString("Button 8 pressed");
 518              		.loc 1 156 0 is_stmt 1
 519 0152 3C48     		ldr	r0, .L34+36
 520 0154 FFF7FEFF 		bl	SW_Tx_UART_PutString
 521              	.LVL83:
 157:main.c        **** SW_Tx_UART_PutCRLF();
 522              		.loc 1 157 0
 523 0158 FFF7FEFF 		bl	SW_Tx_UART_PutCRLF
 524              	.LVL84:
 158:main.c        **** LED_R_Write(0); // Turn ON
 525              		.loc 1 158 0
 526 015c 0020     		movs	r0, #0
 527 015e FFF7FEFF 		bl	LED_R_Write
 528              	.LVL85:
 159:main.c        **** LED_G_Write(0);
 529              		.loc 1 159 0
 530 0162 0020     		movs	r0, #0
 531 0164 FFF7FEFF 		bl	LED_G_Write
 532              	.LVL86:
 160:main.c        **** LED_B_Write(0);
 533              		.loc 1 160 0
 534 0168 0020     		movs	r0, #0
 535 016a FFF7FEFF 		bl	LED_B_Write
 536              	.LVL87:
 155:main.c        **** SW_Tx_UART_PutString("Button 8 pressed");
 537              		.loc 1 155 0
 538 016e 0824     		movs	r4, #8
 539              	.LVL88:
 540              	.L29:
 161:main.c        **** }
 162:main.c        **** if(keys[2][2] == 0 && last_state != 9) //is button pressed
 541              		.loc 1 162 0
 542 0170 2C4B     		ldr	r3, .L34+4
 543 0172 1B7A     		ldrb	r3, [r3, #8]
 544 0174 002B     		cmp	r3, #0
 545 0176 10D1     		bne	.L30
 546              		.loc 1 162 0 is_stmt 0 discriminator 1
 547 0178 092C     		cmp	r4, #9
 548 017a 0ED0     		beq	.L30
 549              	.LVL89:
 163:main.c        **** {
 164:main.c        **** last_state = 9;
 165:main.c        **** SW_Tx_UART_PutString("Button 9 pressed");
 550              		.loc 1 165 0 is_stmt 1
 551 017c 3248     		ldr	r0, .L34+40
 552 017e FFF7FEFF 		bl	SW_Tx_UART_PutString
 553              	.LVL90:
 166:main.c        **** SW_Tx_UART_PutCRLF();
 554              		.loc 1 166 0
 555 0182 FFF7FEFF 		bl	SW_Tx_UART_PutCRLF
 556              	.LVL91:
 167:main.c        **** LED_R_Write(0); // Turn ON
ARM GAS  C:\Users\STUDENT\AppData\Local\Temp\ccKsTVt9.s 			page 14


 557              		.loc 1 167 0
 558 0186 0020     		movs	r0, #0
 559 0188 FFF7FEFF 		bl	LED_R_Write
 560              	.LVL92:
 168:main.c        **** LED_G_Write(0);
 561              		.loc 1 168 0
 562 018c 0020     		movs	r0, #0
 563 018e FFF7FEFF 		bl	LED_G_Write
 564              	.LVL93:
 169:main.c        **** LED_B_Write(0);
 565              		.loc 1 169 0
 566 0192 0020     		movs	r0, #0
 567 0194 FFF7FEFF 		bl	LED_B_Write
 568              	.LVL94:
 164:main.c        **** SW_Tx_UART_PutString("Button 9 pressed");
 569              		.loc 1 164 0
 570 0198 0924     		movs	r4, #9
 571              	.LVL95:
 572              	.L30:
 170:main.c        **** }
 171:main.c        **** 
 172:main.c        **** if(keys[3][0] == 0 && last_state != 10) //is button pressed
 573              		.loc 1 172 0
 574 019a 224B     		ldr	r3, .L34+4
 575 019c 5B7A     		ldrb	r3, [r3, #9]
 576 019e 002B     		cmp	r3, #0
 577 01a0 10D1     		bne	.L31
 578              		.loc 1 172 0 is_stmt 0 discriminator 1
 579 01a2 0A2C     		cmp	r4, #10
 580 01a4 0ED0     		beq	.L31
 581              	.LVL96:
 173:main.c        **** {
 174:main.c        **** last_state = 10;
 175:main.c        **** SW_Tx_UART_PutString("Button * pressed");
 582              		.loc 1 175 0 is_stmt 1
 583 01a6 2948     		ldr	r0, .L34+44
 584 01a8 FFF7FEFF 		bl	SW_Tx_UART_PutString
 585              	.LVL97:
 176:main.c        **** SW_Tx_UART_PutCRLF();
 586              		.loc 1 176 0
 587 01ac FFF7FEFF 		bl	SW_Tx_UART_PutCRLF
 588              	.LVL98:
 177:main.c        **** LED_R_Write(0); // Turn ON
 589              		.loc 1 177 0
 590 01b0 0020     		movs	r0, #0
 591 01b2 FFF7FEFF 		bl	LED_R_Write
 592              	.LVL99:
 178:main.c        **** LED_G_Write(0);
 593              		.loc 1 178 0
 594 01b6 0020     		movs	r0, #0
 595 01b8 FFF7FEFF 		bl	LED_G_Write
 596              	.LVL100:
 179:main.c        **** LED_B_Write(0);
 597              		.loc 1 179 0
 598 01bc 0020     		movs	r0, #0
 599 01be FFF7FEFF 		bl	LED_B_Write
 600              	.LVL101:
ARM GAS  C:\Users\STUDENT\AppData\Local\Temp\ccKsTVt9.s 			page 15


 174:main.c        **** SW_Tx_UART_PutString("Button * pressed");
 601              		.loc 1 174 0
 602 01c2 0A24     		movs	r4, #10
 603              	.LVL102:
 604              	.L31:
 180:main.c        **** }
 181:main.c        **** if(keys[3][1] == 0 && last_state != 0) //is button pressed
 605              		.loc 1 181 0
 606 01c4 174B     		ldr	r3, .L34+4
 607 01c6 9B7A     		ldrb	r3, [r3, #10]
 608 01c8 002B     		cmp	r3, #0
 609 01ca 10D1     		bne	.L32
 610              		.loc 1 181 0 is_stmt 0 discriminator 1
 611 01cc 002C     		cmp	r4, #0
 612 01ce 0ED0     		beq	.L32
 613              	.LVL103:
 182:main.c        **** {
 183:main.c        **** last_state = 0;
 184:main.c        **** SW_Tx_UART_PutString("Button 0 pressed");
 614              		.loc 1 184 0 is_stmt 1
 615 01d0 1F48     		ldr	r0, .L34+48
 616 01d2 FFF7FEFF 		bl	SW_Tx_UART_PutString
 617              	.LVL104:
 185:main.c        **** SW_Tx_UART_PutCRLF();
 618              		.loc 1 185 0
 619 01d6 FFF7FEFF 		bl	SW_Tx_UART_PutCRLF
 620              	.LVL105:
 186:main.c        **** LED_R_Write(0); // Turn ON
 621              		.loc 1 186 0
 622 01da 0020     		movs	r0, #0
 623 01dc FFF7FEFF 		bl	LED_R_Write
 624              	.LVL106:
 187:main.c        **** LED_G_Write(0);
 625              		.loc 1 187 0
 626 01e0 0020     		movs	r0, #0
 627 01e2 FFF7FEFF 		bl	LED_G_Write
 628              	.LVL107:
 188:main.c        **** LED_B_Write(0);
 629              		.loc 1 188 0
 630 01e6 0020     		movs	r0, #0
 631 01e8 FFF7FEFF 		bl	LED_B_Write
 632              	.LVL108:
 183:main.c        **** SW_Tx_UART_PutString("Button 0 pressed");
 633              		.loc 1 183 0
 634 01ec 0024     		movs	r4, #0
 635              	.LVL109:
 636              	.L32:
 189:main.c        **** }
 190:main.c        **** if(keys[3][2] == 0 && last_state != 11) //is button pressed
 637              		.loc 1 190 0
 638 01ee 0D4B     		ldr	r3, .L34+4
 639 01f0 DB7A     		ldrb	r3, [r3, #11]
 640 01f2 002B     		cmp	r3, #0
 641 01f4 00D0     		beq	.LCB539
 642 01f6 11E7     		b	.L21	@long jump
 643              	.LCB539:
 644              		.loc 1 190 0 is_stmt 0 discriminator 1
ARM GAS  C:\Users\STUDENT\AppData\Local\Temp\ccKsTVt9.s 			page 16


 645 01f8 0B2C     		cmp	r4, #11
 646 01fa 00D1     		bne	.LCB541
 647 01fc 0EE7     		b	.L21	@long jump
 648              	.LCB541:
 649              	.LVL110:
 191:main.c        **** {
 192:main.c        **** last_state = 11;
 193:main.c        **** SW_Tx_UART_PutString("Button # pressed");
 650              		.loc 1 193 0 is_stmt 1
 651 01fe 1548     		ldr	r0, .L34+52
 652 0200 FFF7FEFF 		bl	SW_Tx_UART_PutString
 653              	.LVL111:
 194:main.c        **** SW_Tx_UART_PutCRLF();
 654              		.loc 1 194 0
 655 0204 FFF7FEFF 		bl	SW_Tx_UART_PutCRLF
 656              	.LVL112:
 195:main.c        **** LED_R_Write(0); // Turn ON
 657              		.loc 1 195 0
 658 0208 0020     		movs	r0, #0
 659 020a FFF7FEFF 		bl	LED_R_Write
 660              	.LVL113:
 196:main.c        **** LED_G_Write(0);
 661              		.loc 1 196 0
 662 020e 0020     		movs	r0, #0
 663 0210 FFF7FEFF 		bl	LED_G_Write
 664              	.LVL114:
 197:main.c        **** LED_B_Write(0);
 665              		.loc 1 197 0
 666 0214 0020     		movs	r0, #0
 667 0216 FFF7FEFF 		bl	LED_B_Write
 668              	.LVL115:
 192:main.c        **** SW_Tx_UART_PutString("Button # pressed");
 669              		.loc 1 192 0
 670 021a 0B24     		movs	r4, #11
 671 021c FEE6     		b	.L21
 672              	.L35:
 673 021e C046     		.align	2
 674              	.L34:
 675 0220 04000000 		.word	.LC6
 676 0224 00000000 		.word	.LANCHOR1
 677 0228 1C000000 		.word	.LC9
 678 022c 30000000 		.word	.LC11
 679 0230 44000000 		.word	.LC13
 680 0234 58000000 		.word	.LC15
 681 0238 6C000000 		.word	.LC17
 682 023c 80000000 		.word	.LC19
 683 0240 94000000 		.word	.LC21
 684 0244 A8000000 		.word	.LC23
 685 0248 BC000000 		.word	.LC25
 686 024c D0000000 		.word	.LC27
 687 0250 E4000000 		.word	.LC29
 688 0254 F8000000 		.word	.LC31
 689              		.cfi_endproc
 690              	.LFE35:
 691              		.size	main, .-main
 692              		.section	.rodata
 693              		.align	2
ARM GAS  C:\Users\STUDENT\AppData\Local\Temp\ccKsTVt9.s 			page 17


 694              		.set	.LANCHOR0,. + 0
 695              		.type	COLUMN_x_SetDriveMode, %object
 696              		.size	COLUMN_x_SetDriveMode, 12
 697              	COLUMN_x_SetDriveMode:
 698 0000 00000000 		.word	COLUMN_0_SetDriveMode
 699 0004 00000000 		.word	COLUMN_1_SetDriveMode
 700 0008 00000000 		.word	COLUMN_2_SetDriveMode
 701              		.type	COLUMN_x_Write, %object
 702              		.size	COLUMN_x_Write, 12
 703              	COLUMN_x_Write:
 704 000c 00000000 		.word	COLUMN_0_Write
 705 0010 00000000 		.word	COLUMN_1_Write
 706 0014 00000000 		.word	COLUMN_2_Write
 707              		.type	ROW_x_Read, %object
 708              		.size	ROW_x_Read, 16
 709              	ROW_x_Read:
 710 0018 00000000 		.word	ROW_0_Read
 711 001c 00000000 		.word	ROW_1_Read
 712 0020 00000000 		.word	ROW_2_Read
 713 0024 00000000 		.word	ROW_3_Read
 714              		.data
 715              		.align	2
 716              		.set	.LANCHOR1,. + 0
 717              		.type	keys, %object
 718              		.size	keys, 12
 719              	keys:
 720 0000 01       		.byte	1
 721 0001 02       		.byte	2
 722 0002 03       		.byte	3
 723 0003 04       		.byte	4
 724 0004 05       		.byte	5
 725 0005 06       		.byte	6
 726 0006 07       		.byte	7
 727 0007 08       		.byte	8
 728 0008 09       		.byte	9
 729 0009 0A       		.byte	10
 730 000a 00       		.byte	0
 731 000b 0B       		.byte	11
 732              		.section	.rodata.str1.4,"aMS",%progbits,1
 733              		.align	2
 734              	.LC4:
 735 0000 2000     		.ascii	" \000"
 736 0002 0000     		.space	2
 737              	.LC6:
 738 0004 536F6674 		.ascii	"Software Transmit UART\000"
 738      77617265 
 738      20547261 
 738      6E736D69 
 738      74205541 
 739 001b 00       		.space	1
 740              	.LC9:
 741 001c 42757474 		.ascii	"Button 1 pressed\000"
 741      6F6E2031 
 741      20707265 
 741      73736564 
 741      00
 742 002d 000000   		.space	3
ARM GAS  C:\Users\STUDENT\AppData\Local\Temp\ccKsTVt9.s 			page 18


 743              	.LC11:
 744 0030 42757474 		.ascii	"Button 2 pressed\000"
 744      6F6E2032 
 744      20707265 
 744      73736564 
 744      00
 745 0041 000000   		.space	3
 746              	.LC13:
 747 0044 42757474 		.ascii	"Button 3 pressed\000"
 747      6F6E2033 
 747      20707265 
 747      73736564 
 747      00
 748 0055 000000   		.space	3
 749              	.LC15:
 750 0058 42757474 		.ascii	"Button 4 pressed\000"
 750      6F6E2034 
 750      20707265 
 750      73736564 
 750      00
 751 0069 000000   		.space	3
 752              	.LC17:
 753 006c 42757474 		.ascii	"Button 5 pressed\000"
 753      6F6E2035 
 753      20707265 
 753      73736564 
 753      00
 754 007d 000000   		.space	3
 755              	.LC19:
 756 0080 42757474 		.ascii	"Button 6 pressed\000"
 756      6F6E2036 
 756      20707265 
 756      73736564 
 756      00
 757 0091 000000   		.space	3
 758              	.LC21:
 759 0094 42757474 		.ascii	"Button 7 pressed\000"
 759      6F6E2037 
 759      20707265 
 759      73736564 
 759      00
 760 00a5 000000   		.space	3
 761              	.LC23:
 762 00a8 42757474 		.ascii	"Button 8 pressed\000"
 762      6F6E2038 
 762      20707265 
 762      73736564 
 762      00
 763 00b9 000000   		.space	3
 764              	.LC25:
 765 00bc 42757474 		.ascii	"Button 9 pressed\000"
 765      6F6E2039 
 765      20707265 
 765      73736564 
 765      00
 766 00cd 000000   		.space	3
 767              	.LC27:
ARM GAS  C:\Users\STUDENT\AppData\Local\Temp\ccKsTVt9.s 			page 19


 768 00d0 42757474 		.ascii	"Button * pressed\000"
 768      6F6E202A 
 768      20707265 
 768      73736564 
 768      00
 769 00e1 000000   		.space	3
 770              	.LC29:
 771 00e4 42757474 		.ascii	"Button 0 pressed\000"
 771      6F6E2030 
 771      20707265 
 771      73736564 
 771      00
 772 00f5 000000   		.space	3
 773              	.LC31:
 774 00f8 42757474 		.ascii	"Button # pressed\000"
 774      6F6E2023 
 774      20707265 
 774      73736564 
 774      00
 775              		.text
 776              	.Letext0:
 777              		.file 2 "c:\\program files (x86)\\cypress\\psoc creator\\4.4\\psoc creator\\import\\gnu\\arm\\5.4.
 778              		.file 3 "c:\\program files (x86)\\cypress\\psoc creator\\4.4\\psoc creator\\import\\gnu\\arm\\5.4.
 779              		.file 4 "Generated_Source\\PSoC4/cytypes.h"
 780              		.file 5 "Generated_Source\\PSoC4/SW_Tx_UART.h"
 781              		.file 6 "Generated_Source\\PSoC4/LED_R.h"
 782              		.file 7 "Generated_Source\\PSoC4/LED_G.h"
 783              		.file 8 "Generated_Source\\PSoC4/LED_B.h"